(lp0
ccollections
OrderedDict
p1
((lp2
(lp3
S'Sequence'
p4
aS'sq010'
p5
aa(lp6
S'ShotName'
p7
aS'sh0100'
p8
aa(lp9
S'FrameNum'
p10
aS'112'
p11
aa(lp12
S'Assignee'
p13
aS'Unassigned'
p14
aatp15
Rp16
ag1
((lp17
(lp18
g4
aS'sq010'
p19
aa(lp20
g7
aS'sh0110'
p21
aa(lp22
g10
aS'56'
p23
aa(lp24
g13
aS'Bob'
p25
aatp26
Rp27
ag1
((lp28
(lp29
g4
aS'sq010'
p30
aa(lp31
g7
aS'sh0120'
p32
aa(lp33
g10
aS'91'
p34
aa(lp35
g13
aS'Kathy'
p36
aatp37
Rp38
ag1
((lp39
(lp40
g4
aS'sq010'
p41
aa(lp42
g7
aS'sh0130'
p43
aa(lp44
g10
aS'68'
p45
aa(lp46
g13
aS'Josh'
p47
aatp48
Rp49
ag1
((lp50
(lp51
g4
aS'sq020'
p52
aa(lp53
g7
aS'sh0200'
p54
aa(lp55
g10
aS'52'
p56
aa(lp57
g13
aS'Unassigned'
p58
aatp59
Rp60
ag1
((lp61
(lp62
g4
aS'sq020'
p63
aa(lp64
g7
aS'sh0210'
p65
aa(lp66
g10
aS'47'
p67
aa(lp68
g13
aS'Kyle'
p69
aatp70
Rp71
ag1
((lp72
(lp73
g4
aS'sq020'
p74
aa(lp75
g7
aS'sh0220'
p76
aa(lp77
g10
aS'88'
p78
aa(lp79
g13
aS'Unassigned'
p80
aatp81
Rp82
ag1
((lp83
(lp84
g4
aS'sq020'
p85
aa(lp86
g7
aS'sh0230'
p87
aa(lp88
g10
aS'234'
p89
aa(lp90
g13
aS'Samual'
p91
aatp92
Rp93
ag1
((lp94
(lp95
g4
aS'sq020'
p96
aa(lp97
g7
aS'sh0240'
p98
aa(lp99
g10
aS'142'
p100
aa(lp101
g13
aS'David'
p102
aatp103
Rp104
a.