(lp0
ccollections
OrderedDict
p1
((lp2
(lp3
S'Sequence'
p4
aS'sq010'
p5
aa(lp6
S'ShotName'
p7
aS'sh0100'
p8
aa(lp9
S'FrameLen'
p10
aS'112'
p11
aa(lp12
S'Assignee'
p13
aS'Unassigned'
p14
aa(lp15
S''
p16
ag16
aatp17
Rp18
ag1
((lp19
(lp20
g4
aS'sq010'
p21
aa(lp22
g7
aS'sh0110'
p23
aa(lp24
g10
aS'56'
p25
aa(lp26
g13
aS'Bob'
p27
aa(lp28
g16
ag16
aatp29
Rp30
ag1
((lp31
(lp32
g4
aS'sq010'
p33
aa(lp34
g7
aS'sh0120'
p35
aa(lp36
g10
aS'91'
p37
aa(lp38
g13
aS'Kathy'
p39
aa(lp40
g16
ag16
aatp41
Rp42
ag1
((lp43
(lp44
g4
aS'sq010'
p45
aa(lp46
g7
aS'sh0130'
p47
aa(lp48
g10
aS'68'
p49
aa(lp50
g13
aS'Josh'
p51
aa(lp52
g16
ag16
aatp53
Rp54
ag1
((lp55
(lp56
g4
aS'sq020'
p57
aa(lp58
g7
aS'sh0200'
p59
aa(lp60
g10
aS'52'
p61
aa(lp62
g13
aS'Unassigned'
p63
aa(lp64
g16
ag16
aatp65
Rp66
ag1
((lp67
(lp68
g4
aS'sq020'
p69
aa(lp70
g7
aS'sh0210'
p71
aa(lp72
g10
aS'47'
p73
aa(lp74
g13
aS'Kyle'
p75
aa(lp76
g16
ag16
aatp77
Rp78
ag1
((lp79
(lp80
g4
aS'sq020'
p81
aa(lp82
g7
aS'sh0220'
p83
aa(lp84
g10
aS'88'
p85
aa(lp86
g13
aS'Unassigned'
p87
aa(lp88
g16
ag16
aatp89
Rp90
ag1
((lp91
(lp92
g4
aS'sq020'
p93
aa(lp94
g7
aS'sh0230'
p95
aa(lp96
g10
aS'234'
p97
aa(lp98
g13
aS'Samual'
p99
aa(lp100
g16
ag16
aatp101
Rp102
ag1
((lp103
(lp104
g4
aS'sq020'
p105
aa(lp106
g7
aS'sh0240'
p107
aa(lp108
g10
aS'142'
p109
aa(lp110
g13
aS'David'
p111
aa(lp112
g16
ag16
aatp113
Rp114
ag1
((lp115
(lp116
g4
ag16
aa(lp117
g7
ag16
aa(lp118
g10
ag16
aa(lp119
g13
ag16
aa(lp120
g16
ag16
aatp121
Rp122
ag1
((lp123
(lp124
g4
ag16
aa(lp125
g7
ag16
aa(lp126
g10
ag16
aa(lp127
g13
ag16
aa(lp128
g16
ag16
aatp129
Rp130
ag1
((lp131
(lp132
g4
ag16
aa(lp133
g7
ag16
aa(lp134
g10
ag16
aa(lp135
g13
ag16
aa(lp136
g16
ag16
aatp137
Rp138
ag1
((lp139
(lp140
g4
ag16
aa(lp141
g7
ag16
aa(lp142
g10
ag16
aa(lp143
g13
ag16
aa(lp144
g16
ag16
aatp145
Rp146
a.